target datalayout = "e-m:e-p270:32:32-p271:32:32-p272:64:64-i64:64-i128:128-f80:128-n8:16:32:64-S128"
target triple = "x86_64-pc-linux-gnu"

%"struct.dmg_fp::Bigint" = type { ptr, i32, i32, i32, i32, [1 x i32] }

@_ZN6dmg_fpL8freelistE = internal global [8 x ptr] zeroinitializer, align 16
@_ZL9pmem_next = internal global ptr @_ZL11private_mem, align 8
@_ZL11private_mem = internal global [288 x double] zeroinitializer, align 16

; Function Attrs: mustprogress nounwind uwtable
define internal noundef ptr @_ZN6dmg_fpL6BallocEi(i32 noundef %0) #2 {
  %2 = alloca i32, align 4
  %3 = alloca i32, align 4
  %4 = alloca ptr, align 8
  %5 = alloca i32, align 4
  store i32 %0, ptr %2, align 4, !tbaa !14
  call void @llvm.lifetime.start.p0(i64 4, ptr %3) #9
  call void @llvm.lifetime.start.p0(i64 8, ptr %4) #9
  call void @llvm.lifetime.start.p0(i64 4, ptr %5) #9
  %6 = load i32, ptr %2, align 4, !tbaa !14
  %7 = icmp sle i32 %6, 7
  br i1 %7, label %8, label %25

8:                                                ; preds = %1
  %9 = load i32, ptr %2, align 4, !tbaa !14
  %10 = sext i32 %9 to i64
  %11 = getelementptr inbounds [8 x ptr], ptr @_ZN6dmg_fpL8freelistE, i64 0, i64 %10
  %12 = load ptr, ptr %11, align 8, !tbaa !30
  %13 = icmp ne ptr %12, null
  br i1 %13, label %14, label %25

14:                                               ; preds = %8
  %15 = load i32, ptr %2, align 4, !tbaa !14
  %16 = sext i32 %15 to i64
  %17 = getelementptr inbounds [8 x ptr], ptr @_ZN6dmg_fpL8freelistE, i64 0, i64 %16
  %18 = load ptr, ptr %17, align 8, !tbaa !30
  store ptr %18, ptr %4, align 8, !tbaa !30
  %19 = load ptr, ptr %4, align 8, !tbaa !30
  %20 = getelementptr inbounds nuw %"struct.dmg_fp::Bigint", ptr %19, i32 0, i32 0
  %21 = load ptr, ptr %20, align 8, !tbaa !54
  %22 = load i32, ptr %2, align 4, !tbaa !14
  %23 = sext i32 %22 to i64
  %24 = getelementptr inbounds [8 x ptr], ptr @_ZN6dmg_fpL8freelistE, i64 0, i64 %23
  store ptr %21, ptr %24, align 8, !tbaa !30
  br label %66

25:                                               ; preds = %8, %1
  %26 = load i32, ptr %2, align 4, !tbaa !14
  %27 = shl i32 1, %26
  store i32 %27, ptr %3, align 4, !tbaa !14
  %28 = load i32, ptr %3, align 4, !tbaa !14
  %29 = sub nsw i32 %28, 1
  %30 = sext i32 %29 to i64
  %31 = mul i64 %30, 4
  %32 = add i64 32, %31
  %33 = add i64 %32, 8
  %34 = sub i64 %33, 1
  %35 = udiv i64 %34, 8
  %36 = trunc i64 %35 to i32
  store i32 %36, ptr %5, align 4, !tbaa !14
  %37 = load i32, ptr %2, align 4, !tbaa !14
  %38 = icmp sle i32 %37, 7
  br i1 %38, label %39, label %54

39:                                               ; preds = %25
  %40 = load ptr, ptr @_ZL9pmem_next, align 8, !tbaa !55
  %41 = ptrtoint ptr %40 to i64
  %42 = sub i64 %41, ptrtoint (ptr @_ZL11private_mem to i64)
  %43 = sdiv exact i64 %42, 8
  %44 = load i32, ptr %5, align 4, !tbaa !14
  %45 = zext i32 %44 to i64
  %46 = add nsw i64 %43, %45
  %47 = icmp sle i64 %46, 288
  br i1 %47, label %48, label %54

48:                                               ; preds = %39
  %49 = load ptr, ptr @_ZL9pmem_next, align 8, !tbaa !55
  store ptr %49, ptr %4, align 8, !tbaa !30
  %50 = load i32, ptr %5, align 4, !tbaa !14
  %51 = load ptr, ptr @_ZL9pmem_next, align 8, !tbaa !55
  %52 = zext i32 %50 to i64
  %53 = getelementptr inbounds nuw double, ptr %51, i64 %52
  store ptr %53, ptr @_ZL9pmem_next, align 8, !tbaa !55
  br label %59

54:                                               ; preds = %39, %25
  %55 = load i32, ptr %5, align 4, !tbaa !14
  %56 = zext i32 %55 to i64
  %57 = mul i64 %56, 8
  %58 = call noalias ptr @malloc(i64 noundef %57) #11
  store ptr %58, ptr %4, align 8, !tbaa !30
  br label %59

59:                                               ; preds = %54, %48
  %60 = load i32, ptr %2, align 4, !tbaa !14
  %61 = load ptr, ptr %4, align 8, !tbaa !30
  %62 = getelementptr inbounds nuw %"struct.dmg_fp::Bigint", ptr %61, i32 0, i32 1
  store i32 %60, ptr %62, align 8, !tbaa !40
  %63 = load i32, ptr %3, align 4, !tbaa !14
  %64 = load ptr, ptr %4, align 8, !tbaa !30
  %65 = getelementptr inbounds nuw %"struct.dmg_fp::Bigint", ptr %64, i32 0, i32 2
  store i32 %63, ptr %65, align 4, !tbaa !57
  br label %66

66:                                               ; preds = %59, %14
  %67 = load ptr, ptr %4, align 8, !tbaa !30
  %68 = getelementptr inbounds nuw %"struct.dmg_fp::Bigint", ptr %67, i32 0, i32 4
  store i32 0, ptr %68, align 4, !tbaa !42
  %69 = load ptr, ptr %4, align 8, !tbaa !30
  %70 = getelementptr inbounds nuw %"struct.dmg_fp::Bigint", ptr %69, i32 0, i32 3
  store i32 0, ptr %70, align 8, !tbaa !43
  %71 = load ptr, ptr %4, align 8, !tbaa !30
  call void @llvm.lifetime.end.p0(i64 4, ptr %5) #9
  call void @llvm.lifetime.end.p0(i64 8, ptr %4) #9
  call void @llvm.lifetime.end.p0(i64 4, ptr %3) #9
  ret ptr %71
}

; Function Attrs: mustprogress nounwind uwtable
define internal noundef ptr @_ZN6dmg_fpL4multEPNS_6BigintES1_(ptr noundef %0, ptr noundef %1) #2 {
  %3 = alloca ptr, align 8
  %4 = alloca ptr, align 8
  %5 = alloca ptr, align 8
  %6 = alloca i32, align 4
  %7 = alloca i32, align 4
  %8 = alloca i32, align 4
  %9 = alloca i32, align 4
  %10 = alloca ptr, align 8
  %11 = alloca ptr, align 8
  %12 = alloca ptr, align 8
  %13 = alloca ptr, align 8
  %14 = alloca ptr, align 8
  %15 = alloca ptr, align 8
  %16 = alloca ptr, align 8
  %17 = alloca i32, align 4
  %18 = alloca i64, align 8
  %19 = alloca i64, align 8
  store ptr %0, ptr %3, align 8, !tbaa !30
  store ptr %1, ptr %4, align 8, !tbaa !30
  call void @llvm.lifetime.start.p0(i64 8, ptr %5) #9
  call void @llvm.lifetime.start.p0(i64 4, ptr %6) #9
  call void @llvm.lifetime.start.p0(i64 4, ptr %7) #9
  call void @llvm.lifetime.start.p0(i64 4, ptr %8) #9
  call void @llvm.lifetime.start.p0(i64 4, ptr %9) #9
  call void @llvm.lifetime.start.p0(i64 8, ptr %10) #9
  call void @llvm.lifetime.start.p0(i64 8, ptr %11) #9
  call void @llvm.lifetime.start.p0(i64 8, ptr %12) #9
  call void @llvm.lifetime.start.p0(i64 8, ptr %13) #9
  call void @llvm.lifetime.start.p0(i64 8, ptr %14) #9
  call void @llvm.lifetime.start.p0(i64 8, ptr %15) #9
  call void @llvm.lifetime.start.p0(i64 8, ptr %16) #9
  call void @llvm.lifetime.start.p0(i64 4, ptr %17) #9
  call void @llvm.lifetime.start.p0(i64 8, ptr %18) #9
  call void @llvm.lifetime.start.p0(i64 8, ptr %19) #9
  %20 = load ptr, ptr %3, align 8, !tbaa !30
  %21 = getelementptr inbounds nuw %"struct.dmg_fp::Bigint", ptr %20, i32 0, i32 4
  %22 = load i32, ptr %21, align 4, !tbaa !42
  %23 = load ptr, ptr %4, align 8, !tbaa !30
  %24 = getelementptr inbounds nuw %"struct.dmg_fp::Bigint", ptr %23, i32 0, i32 4
  %25 = load i32, ptr %24, align 4, !tbaa !42
  %26 = icmp slt i32 %22, %25
  br i1 %26, label %27, label %31

27:                                               ; preds = %2
  %28 = load ptr, ptr %3, align 8, !tbaa !30
  store ptr %28, ptr %5, align 8, !tbaa !30
  %29 = load ptr, ptr %4, align 8, !tbaa !30
  store ptr %29, ptr %3, align 8, !tbaa !30
  %30 = load ptr, ptr %5, align 8, !tbaa !30
  store ptr %30, ptr %4, align 8, !tbaa !30
  br label %31

31:                                               ; preds = %27, %2
  %32 = load ptr, ptr %3, align 8, !tbaa !30
  %33 = getelementptr inbounds nuw %"struct.dmg_fp::Bigint", ptr %32, i32 0, i32 1
  %34 = load i32, ptr %33, align 8, !tbaa !40
  store i32 %34, ptr %6, align 4, !tbaa !14
  %35 = load ptr, ptr %3, align 8, !tbaa !30
  %36 = getelementptr inbounds nuw %"struct.dmg_fp::Bigint", ptr %35, i32 0, i32 4
  %37 = load i32, ptr %36, align 4, !tbaa !42
  store i32 %37, ptr %7, align 4, !tbaa !14
  %38 = load ptr, ptr %4, align 8, !tbaa !30
  %39 = getelementptr inbounds nuw %"struct.dmg_fp::Bigint", ptr %38, i32 0, i32 4
  %40 = load i32, ptr %39, align 4, !tbaa !42
  store i32 %40, ptr %8, align 4, !tbaa !14
  %41 = load i32, ptr %7, align 4, !tbaa !14
  %42 = load i32, ptr %8, align 4, !tbaa !14
  %43 = add nsw i32 %41, %42
  store i32 %43, ptr %9, align 4, !tbaa !14
  %44 = load i32, ptr %9, align 4, !tbaa !14
  %45 = load ptr, ptr %3, align 8, !tbaa !30
  %46 = getelementptr inbounds nuw %"struct.dmg_fp::Bigint", ptr %45, i32 0, i32 2
  %47 = load i32, ptr %46, align 4, !tbaa !57
  %48 = icmp sgt i32 %44, %47
  br i1 %48, label %49, label %52

49:                                               ; preds = %31
  %50 = load i32, ptr %6, align 4, !tbaa !14
  %51 = add nsw i32 %50, 1
  store i32 %51, ptr %6, align 4, !tbaa !14
  br label %52

52:                                               ; preds = %49, %31
  %53 = load i32, ptr %6, align 4, !tbaa !14
  %54 = call noundef ptr @_ZN6dmg_fpL6BallocEi(i32 noundef %53)
  store ptr %54, ptr %5, align 8, !tbaa !30
  %55 = load ptr, ptr %5, align 8, !tbaa !30
  %56 = getelementptr inbounds nuw %"struct.dmg_fp::Bigint", ptr %55, i32 0, i32 5
  %57 = getelementptr inbounds [1 x i32], ptr %56, i64 0, i64 0
  store ptr %57, ptr %10, align 8, !tbaa !58
  %58 = load ptr, ptr %10, align 8, !tbaa !58
  %59 = load i32, ptr %9, align 4, !tbaa !14
  %60 = sext i32 %59 to i64
  %61 = getelementptr inbounds i32, ptr %58, i64 %60
  store ptr %61, ptr %11, align 8, !tbaa !58
  br label %62

62:                                               ; preds = %68, %52
  %63 = load ptr, ptr %10, align 8, !tbaa !58
  %64 = load ptr, ptr %11, align 8, !tbaa !58
  %65 = icmp ult ptr %63, %64
  br i1 %65, label %66, label %71

66:                                               ; preds = %62
  %67 = load ptr, ptr %10, align 8, !tbaa !58
  store i32 0, ptr %67, align 4, !tbaa !14
  br label %68

68:                                               ; preds = %66
  %69 = load ptr, ptr %10, align 8, !tbaa !58
  %70 = getelementptr inbounds nuw i32, ptr %69, i32 1
  store ptr %70, ptr %10, align 8, !tbaa !58
  br label %62, !llvm.loop !61

71:                                               ; preds = %62
  %72 = load ptr, ptr %3, align 8, !tbaa !30
  %73 = getelementptr inbounds nuw %"struct.dmg_fp::Bigint", ptr %72, i32 0, i32 5
  %74 = getelementptr inbounds [1 x i32], ptr %73, i64 0, i64 0
  store ptr %74, ptr %11, align 8, !tbaa !58
  %75 = load ptr, ptr %11, align 8, !tbaa !58
  %76 = load i32, ptr %7, align 4, !tbaa !14
  %77 = sext i32 %76 to i64
  %78 = getelementptr inbounds i32, ptr %75, i64 %77
  store ptr %78, ptr %12, align 8, !tbaa !58
  %79 = load ptr, ptr %4, align 8, !tbaa !30
  %80 = getelementptr inbounds nuw %"struct.dmg_fp::Bigint", ptr %79, i32 0, i32 5
  %81 = getelementptr inbounds [1 x i32], ptr %80, i64 0, i64 0
  store ptr %81, ptr %13, align 8, !tbaa !58
  %82 = load ptr, ptr %13, align 8, !tbaa !58
  %83 = load i32, ptr %8, align 4, !tbaa !14
  %84 = sext i32 %83 to i64
  %85 = getelementptr inbounds i32, ptr %82, i64 %84
  store ptr %85, ptr %14, align 8, !tbaa !58
  %86 = load ptr, ptr %5, align 8, !tbaa !30
  %87 = getelementptr inbounds nuw %"struct.dmg_fp::Bigint", ptr %86, i32 0, i32 5
  %88 = getelementptr inbounds [1 x i32], ptr %87, i64 0, i64 0
  store ptr %88, ptr %16, align 8, !tbaa !58
  br label %89

89:                                               ; preds = %132, %71
  %90 = load ptr, ptr %13, align 8, !tbaa !58
  %91 = load ptr, ptr %14, align 8, !tbaa !58
  %92 = icmp ult ptr %90, %91
  br i1 %92, label %93, label %135

93:                                               ; preds = %89
  %94 = load ptr, ptr %13, align 8, !tbaa !58
  %95 = getelementptr inbounds nuw i32, ptr %94, i32 1
  store ptr %95, ptr %13, align 8, !tbaa !58
  %96 = load i32, ptr %94, align 4, !tbaa !14
  store i32 %96, ptr %17, align 4, !tbaa !14
  %97 = load i32, ptr %17, align 4, !tbaa !14
  %98 = icmp ne i32 %97, 0
  br i1 %98, label %99, label %131

99:                                               ; preds = %93
  %100 = load ptr, ptr %11, align 8, !tbaa !58
  store ptr %100, ptr %10, align 8, !tbaa !58
  %101 = load ptr, ptr %16, align 8, !tbaa !58
  store ptr %101, ptr %15, align 8, !tbaa !58
  store i64 0, ptr %18, align 8, !tbaa !62
  br label %102

102:                                              ; preds = %123, %99
  %103 = load ptr, ptr %10, align 8, !tbaa !58
  %104 = getelementptr inbounds nuw i32, ptr %103, i32 1
  store ptr %104, ptr %10, align 8, !tbaa !58
  %105 = load i32, ptr %103, align 4, !tbaa !14
  %106 = zext i32 %105 to i64
  %107 = load i32, ptr %17, align 4, !tbaa !14
  %108 = zext i32 %107 to i64
  %109 = mul i64 %106, %108
  %110 = load ptr, ptr %15, align 8, !tbaa !58
  %111 = load i32, ptr %110, align 4, !tbaa !14
  %112 = zext i32 %111 to i64
  %113 = add i64 %109, %112
  %114 = load i64, ptr %18, align 8, !tbaa !62
  %115 = add i64 %113, %114
  store i64 %115, ptr %19, align 8, !tbaa !62
  %116 = load i64, ptr %19, align 8, !tbaa !62
  %117 = lshr i64 %116, 32
  store i64 %117, ptr %18, align 8, !tbaa !62
  %118 = load i64, ptr %19, align 8, !tbaa !62
  %119 = and i64 %118, 4294967295
  %120 = trunc i64 %119 to i32
  %121 = load ptr, ptr %15, align 8, !tbaa !58
  %122 = getelementptr inbounds nuw i32, ptr %121, i32 1
  store ptr %122, ptr %15, align 8, !tbaa !58
  store i32 %120, ptr %121, align 4, !tbaa !14
  br label %123

123:                                              ; preds = %102
  %124 = load ptr, ptr %10, align 8, !tbaa !58
  %125 = load ptr, ptr %12, align 8, !tbaa !58
  %126 = icmp ult ptr %124, %125
  br i1 %126, label %102, label %127, !llvm.loop !64

127:                                              ; preds = %123
  %128 = load i64, ptr %18, align 8, !tbaa !62
  %129 = trunc i64 %128 to i32
  %130 = load ptr, ptr %15, align 8, !tbaa !58
  store i32 %129, ptr %130, align 4, !tbaa !14
  br label %131

131:                                              ; preds = %127, %93
  br label %132

132:                                              ; preds = %131
  %133 = load ptr, ptr %16, align 8, !tbaa !58
  %134 = getelementptr inbounds nuw i32, ptr %133, i32 1
  store ptr %134, ptr %16, align 8, !tbaa !58
  br label %89, !llvm.loop !65

135:                                              ; preds = %89
  %136 = load ptr, ptr %5, align 8, !tbaa !30
  %137 = getelementptr inbounds nuw %"struct.dmg_fp::Bigint", ptr %136, i32 0, i32 5
  %138 = getelementptr inbounds [1 x i32], ptr %137, i64 0, i64 0
  store ptr %138, ptr %16, align 8, !tbaa !58
  %139 = load ptr, ptr %16, align 8, !tbaa !58
  %140 = load i32, ptr %9, align 4, !tbaa !14
  %141 = sext i32 %140 to i64
  %142 = getelementptr inbounds i32, ptr %139, i64 %141
  store ptr %142, ptr %15, align 8, !tbaa !58
  br label %143

143:                                              ; preds = %155, %135
  %144 = load i32, ptr %9, align 4, !tbaa !14
  %145 = icmp sgt i32 %144, 0
  br i1 %145, label %146, label %152

146:                                              ; preds = %143
  %147 = load ptr, ptr %15, align 8, !tbaa !58
  %148 = getelementptr inbounds i32, ptr %147, i32 -1
  store ptr %148, ptr %15, align 8, !tbaa !58
  %149 = load i32, ptr %148, align 4, !tbaa !14
  %150 = icmp ne i32 %149, 0
  %151 = xor i1 %150, true
  br label %152

152:                                              ; preds = %146, %143
  %153 = phi i1 [ false, %143 ], [ %151, %146 ]
  br i1 %153, label %154, label %158

154:                                              ; preds = %152
  br label %155

155:                                              ; preds = %154
  %156 = load i32, ptr %9, align 4, !tbaa !14
  %157 = add nsw i32 %156, -1
  store i32 %157, ptr %9, align 4, !tbaa !14
  br label %143, !llvm.loop !66

158:                                              ; preds = %152
  %159 = load i32, ptr %9, align 4, !tbaa !14
  %160 = load ptr, ptr %5, align 8, !tbaa !30
  %161 = getelementptr inbounds nuw %"struct.dmg_fp::Bigint", ptr %160, i32 0, i32 4
  store i32 %159, ptr %161, align 4, !tbaa !42
  %162 = load ptr, ptr %5, align 8, !tbaa !30
  call void @llvm.lifetime.end.p0(i64 8, ptr %19) #9
  call void @llvm.lifetime.end.p0(i64 8, ptr %18) #9
  call void @llvm.lifetime.end.p0(i64 4, ptr %17) #9
  call void @llvm.lifetime.end.p0(i64 8, ptr %16) #9
  call void @llvm.lifetime.end.p0(i64 8, ptr %15) #9
  call void @llvm.lifetime.end.p0(i64 8, ptr %14) #9
  call void @llvm.lifetime.end.p0(i64 8, ptr %13) #9
  call void @llvm.lifetime.end.p0(i64 8, ptr %12) #9
  call void @llvm.lifetime.end.p0(i64 8, ptr %11) #9
  call void @llvm.lifetime.end.p0(i64 8, ptr %10) #9
  call void @llvm.lifetime.end.p0(i64 4, ptr %9) #9
  call void @llvm.lifetime.end.p0(i64 4, ptr %8) #9
  call void @llvm.lifetime.end.p0(i64 4, ptr %7) #9
  call void @llvm.lifetime.end.p0(i64 4, ptr %6) #9
  call void @llvm.lifetime.end.p0(i64 8, ptr %5) #9
  ret ptr %162
}