; Function Attrs: mustprogress nofree nounwind uwtable
define internal fastcc noundef ptr @_ZN6dmg_fpL4multEPNS_6BigintES1_(ptr noundef readonly captures(address) %0, ptr noundef readonly captures(address) %1) unnamed_addr #8 {
  %3 = getelementptr inbounds nuw i8, ptr %0, i64 20
  %4 = load i32, ptr %3, align 4, !tbaa !37
  %5 = getelementptr inbounds nuw i8, ptr %1, i64 20
  %6 = load i32, ptr %5, align 4, !tbaa !37
  %7 = icmp slt i32 %4, %6
  %spec.select = select i1 %7, ptr %0, ptr %1
  %spec.select66 = select i1 %7, ptr %1, ptr %0
  %8 = getelementptr inbounds nuw i8, ptr %spec.select66, i64 8
  %9 = load i32, ptr %8, align 8, !tbaa !34
  %10 = getelementptr inbounds nuw i8, ptr %spec.select66, i64 20
  %11 = load i32, ptr %10, align 4, !tbaa !37
  %12 = getelementptr inbounds nuw i8, ptr %spec.select, i64 20
  %13 = load i32, ptr %12, align 4, !tbaa !37
  %14 = add nsw i32 %13, %11
  %15 = getelementptr inbounds nuw i8, ptr %spec.select66, i64 12
  %16 = load i32, ptr %15, align 4, !tbaa !35
  %17 = icmp sgt i32 %14, %16
  %18 = zext i1 %17 to i32
  %.059 = add nsw i32 %9, %18
  %19 = icmp slt i32 %.059, 8
  br i1 %19, label %20, label %26

20:                                               ; preds = %2
  %21 = sext i32 %.059 to i64
  %22 = getelementptr inbounds [8 x ptr], ptr @_ZN6dmg_fpL8freelistE, i64 0, i64 %21
  %23 = load ptr, ptr %22, align 8, !tbaa !28
  %.not.i = icmp eq ptr %23, null
  br i1 %.not.i, label %32, label %24

24:                                               ; preds = %20
  %25 = load ptr, ptr %23, align 8, !tbaa !30
  store ptr %25, ptr %22, align 8, !tbaa !28
  br label %_ZN6dmg_fpL6BallocEi.exit

26:                                               ; preds = %2
  %27 = shl nuw i32 1, %.059
  %28 = add nsw i32 %27, -1
  %29 = zext nneg i32 %28 to i64
  %30 = shl nuw nsw i64 %29, 2
  %31 = add nuw nsw i64 %30, 39
  br label %47

32:                                               ; preds = %20
  %33 = shl nuw nsw i32 1, %.059
  %34 = add nsw i32 %33, -1
  %35 = zext nneg i32 %34 to i64
  %36 = shl nuw nsw i64 %35, 2
  %37 = add nuw nsw i64 %36, 39
  %38 = lshr i64 %37, 3
  %39 = load ptr, ptr @_ZL9pmem_next, align 8, !tbaa !32
  %40 = ptrtoint ptr %39 to i64
  %41 = sub i64 %40, ptrtoint (ptr @_ZL11private_mem to i64)
  %42 = ashr exact i64 %41, 3
  %43 = add nsw i64 %42, %38
  %44 = icmp slt i64 %43, 289
  br i1 %44, label %45, label %47

45:                                               ; preds = %32
  %46 = getelementptr inbounds nuw double, ptr %39, i64 %38
  store ptr %46, ptr @_ZL9pmem_next, align 8, !tbaa !32
  br label %52

47:                                               ; preds = %32, %26
  %48 = phi i64 [ %37, %32 ], [ %31, %26 ]
  %49 = phi i32 [ %33, %32 ], [ %27, %26 ]
  %50 = and i64 %48, 34359738360
  %51 = tail call noalias ptr @malloc(i64 noundef %50) #18
  br label %52

52:                                               ; preds = %47, %45
  %53 = phi i32 [ %33, %45 ], [ %49, %47 ]
  %.1.i = phi ptr [ %39, %45 ], [ %51, %47 ]
  %54 = getelementptr inbounds nuw i8, ptr %.1.i, i64 8
  store i32 %.059, ptr %54, align 8, !tbaa !34
  %55 = getelementptr inbounds nuw i8, ptr %.1.i, i64 12
  store i32 %53, ptr %55, align 4, !tbaa !35
  br label %_ZN6dmg_fpL6BallocEi.exit

_ZN6dmg_fpL6BallocEi.exit:                        ; preds = %24, %52
  %.0.i = phi ptr [ %23, %24 ], [ %.1.i, %52 ]
  %56 = getelementptr inbounds nuw i8, ptr %.0.i, i64 20
  store i32 0, ptr %56, align 4, !tbaa !37
  %57 = getelementptr inbounds nuw i8, ptr %.0.i, i64 16
  store i32 0, ptr %57, align 8, !tbaa !36
  %.ptr = getelementptr i8, ptr %.0.i, i64 24
  %58 = sext i32 %14 to i64
  %.idx = shl nsw i64 %58, 2
  %59 = getelementptr i8, ptr %.0.i, i64 %.idx
  %.ptr79 = getelementptr i8, ptr %59, i64 24
  %60 = icmp sgt i32 %14, 0
  br i1 %60, label %.lr.ph.preheader, label %._crit_edge

.lr.ph.preheader:                                 ; preds = %_ZN6dmg_fpL6BallocEi.exit
  %.0.i84 = ptrtoint ptr %.0.i to i64
  %61 = add i64 %.idx, %.0.i84
  %62 = add i64 %61, 24
  %63 = add i64 %.0.i84, 28
  %umax = tail call i64 @llvm.umax.i64(i64 %62, i64 %63)
  %64 = add i64 %umax, -25
  %65 = sub i64 %64, %.0.i84
  %66 = and i64 %65, -4
  %67 = add i64 %66, 4
  tail call void @llvm.memset.p0.i64(ptr align 4 %.ptr, i8 0, i64 %67, i1 false), !tbaa !20
  br label %._crit_edge

._crit_edge:                                      ; preds = %.lr.ph.preheader, %_ZN6dmg_fpL6BallocEi.exit
  %68 = getelementptr inbounds nuw i8, ptr %spec.select66, i64 24
  %69 = sext i32 %11 to i64
  %70 = getelementptr inbounds i32, ptr %68, i64 %69
  %71 = sext i32 %13 to i64
  %.idx80 = shl nsw i64 %71, 2
  %72 = getelementptr i8, ptr %spec.select, i64 %.idx80
  %.ptr82 = getelementptr i8, ptr %72, i64 24
  %73 = icmp sgt i32 %13, 0
  br i1 %73, label %.lr.ph73.preheader, label %.preheader

.lr.ph73.preheader:                               ; preds = %._crit_edge
  %.ptr81 = getelementptr inbounds nuw i8, ptr %spec.select, i64 24
  br label %.lr.ph73

.preheader:                                       ; preds = %92, %._crit_edge
  br i1 %60, label %.lr.ph76, label %.critedge

.lr.ph73:                                         ; preds = %.lr.ph73.preheader, %92
  %.05671 = phi ptr [ %93, %92 ], [ %.ptr, %.lr.ph73.preheader ]
  %.05870 = phi ptr [ %74, %92 ], [ %.ptr81, %.lr.ph73.preheader ]
  %74 = getelementptr inbounds nuw i8, ptr %.05870, i64 4
  %75 = load i32, ptr %.05870, align 4, !tbaa !20
  %.not65 = icmp eq i32 %75, 0
  br i1 %.not65, label %92, label %.preheader67

.preheader67:                                     ; preds = %.lr.ph73
  %76 = zext i32 %75 to i64
  br label %77

77:                                               ; preds = %.preheader67, %77
  %.161 = phi ptr [ %78, %77 ], [ %68, %.preheader67 ]
  %.057 = phi ptr [ %88, %77 ], [ %.05671, %.preheader67 ]
  %.054 = phi i64 [ %86, %77 ], [ 0, %.preheader67 ]
  %78 = getelementptr inbounds nuw i8, ptr %.161, i64 4
  %79 = load i32, ptr %.161, align 4, !tbaa !20
  %80 = zext i32 %79 to i64
  %81 = mul nuw i64 %80, %76
  %82 = load i32, ptr %.057, align 4, !tbaa !20
  %83 = zext i32 %82 to i64
  %84 = add nuw nsw i64 %.054, %83
  %85 = add nuw i64 %84, %81
  %86 = lshr i64 %85, 32
  %87 = trunc i64 %85 to i32
  %88 = getelementptr inbounds nuw i8, ptr %.057, i64 4
  store i32 %87, ptr %.057, align 4, !tbaa !20
  %89 = icmp ult ptr %78, %70
  br i1 %89, label %77, label %90, !llvm.loop !49

90:                                               ; preds = %77
  %91 = trunc nuw i64 %86 to i32
  store i32 %91, ptr %88, align 4, !tbaa !20
  br label %92

92:                                               ; preds = %.lr.ph73, %90
  %93 = getelementptr inbounds nuw i8, ptr %.05671, i64 4
  %94 = icmp ult ptr %74, %.ptr82
  br i1 %94, label %.lr.ph73, label %.preheader, !llvm.loop !50

.lr.ph76:                                         ; preds = %.preheader, %97
  %.175 = phi ptr [ %95, %97 ], [ %.ptr79, %.preheader ]
  %.06274 = phi i32 [ %98, %97 ], [ %14, %.preheader ]
  %95 = getelementptr inbounds i8, ptr %.175, i64 -4
  %96 = load i32, ptr %95, align 4, !tbaa !20
  %.not = icmp eq i32 %96, 0
  br i1 %.not, label %97, label %.critedge

97:                                               ; preds = %.lr.ph76
  %98 = add nsw i32 %.06274, -1
  %99 = icmp sgt i32 %.06274, 1
  br i1 %99, label %.lr.ph76, label %.critedge, !llvm.loop !51

.critedge:                                        ; preds = %.lr.ph76, %97, %.preheader
  %.062.lcssa = phi i32 [ %14, %.preheader ], [ 0, %97 ], [ %.06274, %.lr.ph76 ]
  store i32 %.062.lcssa, ptr %56, align 4, !tbaa !37
  ret ptr %.0.i
}